; Function Attrs: mustprogress uwtable
define hidden void @_ZN2cv12ppf_match_3d15samplePCUniformENS_3MatEi(ptr dead_on_unwind noalias nonnull writable sret(%"class.cv::Mat") align 8 %0, ptr noundef %1, i32 noundef %2) local_unnamed_addr #3 personality ptr @__gxx_personality_v0 {
  %4 = alloca %"class.cv::Range", align 4
  %5 = alloca %"class.cv::Range", align 8
  %6 = alloca %"class.cv::Range", align 4
  %7 = alloca %"class.cv::Range", align 8
  %8 = alloca %"class.cv::Mat", align 8
  %9 = alloca %"class.cv::_OutputArray", align 8
  %10 = alloca %"class.cv::Mat", align 8
  %11 = getelementptr inbounds nuw i8, ptr %1, i64 8
  %12 = load i32, ptr %11, align 8, !tbaa !87
  %13 = sdiv i32 %12, %2
  %14 = getelementptr inbounds nuw i8, ptr %1, i64 12
  %15 = load i32, ptr %14, align 4, !tbaa !88
  %16 = load i32, ptr %1, align 8, !tbaa !91
  %17 = and i32 %16, 4095
  tail call void @_ZN2cv3MatC1Eiii(ptr noundef nonnull align 8 dereferenceable(96) %0, i32 noundef %13, i32 noundef %15, i32 noundef %17)
  %18 = load i32, ptr %11, align 8, !tbaa !87
  %19 = icmp sgt i32 %18, 0
  %20 = icmp sgt i32 %13, 0
  %21 = and i1 %19, %20
  br i1 %21, label %.lr.ph, label %._crit_edge

.lr.ph:                                           ; preds = %3
  %22 = getelementptr inbounds nuw i8, ptr %6, i64 4
  %23 = getelementptr inbounds nuw i8, ptr %4, i64 4
  %24 = getelementptr inbounds nuw i8, ptr %9, i64 8
  %25 = getelementptr inbounds nuw i8, ptr %9, i64 16
  br label %26

26:                                               ; preds = %.lr.ph, %31
  %.01421 = phi i32 [ 0, %.lr.ph ], [ %32, %31 ]
  %.01520 = phi i32 [ 0, %.lr.ph ], [ %29, %31 ]
  call void @llvm.lifetime.start.p0(i64 96, ptr nonnull %8) #36
  call void @llvm.lifetime.start.p0(i64 8, ptr nonnull %6) #36, !noalias !92
  %27 = add nsw i32 %.01421, 1
  store i32 %.01421, ptr %6, align 4, !tbaa !95, !noalias !92
  store i32 %27, ptr %22, align 4, !tbaa !97, !noalias !92
  call void @llvm.lifetime.start.p0(i64 8, ptr nonnull %7) #36, !noalias !92
  store i64 9223372034707292160, ptr %7, align 8, !noalias !92
  invoke void @_ZN2cv3MatC1ERKS0_RKNS_5RangeES5_(ptr noundef nonnull align 8 dereferenceable(96) %8, ptr noundef nonnull align 8 dereferenceable(96) %1, ptr noundef nonnull align 4 dereferenceable(8) %6, ptr noundef nonnull align 4 dereferenceable(8) %7)
          to label %28 unwind label %37

28:                                               ; preds = %26
  call void @llvm.lifetime.end.p0(i64 8, ptr nonnull %7) #36, !noalias !92
  call void @llvm.lifetime.end.p0(i64 8, ptr nonnull %6) #36, !noalias !92
  call void @llvm.lifetime.start.p0(i64 24, ptr nonnull %9) #36
  call void @llvm.lifetime.start.p0(i64 96, ptr nonnull %10) #36
  %29 = add nuw nsw i32 %.01520, 1
  call void @llvm.lifetime.start.p0(i64 8, ptr nonnull %4) #36, !noalias !98
  store i32 %.01520, ptr %4, align 4, !tbaa !95, !noalias !98
  store i32 %29, ptr %23, align 4, !tbaa !97, !noalias !98
  call void @llvm.lifetime.start.p0(i64 8, ptr nonnull %5) #36, !noalias !98
  store i64 9223372034707292160, ptr %5, align 8, !noalias !98
  invoke void @_ZN2cv3MatC1ERKS0_RKNS_5RangeES5_(ptr noundef nonnull align 8 dereferenceable(96) %10, ptr noundef nonnull align 8 dereferenceable(96) %0, ptr noundef nonnull align 4 dereferenceable(8) %4, ptr noundef nonnull align 4 dereferenceable(8) %5)
          to label %30 unwind label %39

30:                                               ; preds = %28
  call void @llvm.lifetime.end.p0(i64 8, ptr nonnull %5) #36, !noalias !98
  call void @llvm.lifetime.end.p0(i64 8, ptr nonnull %4) #36, !noalias !98
  store i64 0, ptr %25, align 8
  store i32 -1040121856, ptr %9, align 8, !tbaa !101
  store ptr %10, ptr %24, align 8, !tbaa !104
  invoke void @_ZNK2cv3Mat6copyToERKNS_12_OutputArrayE(ptr noundef nonnull align 8 dereferenceable(96) %8, ptr noundef nonnull align 8 dereferenceable(24) %9)
          to label %31 unwind label %41

31:                                               ; preds = %30
  call void @_ZN2cv3MatD1Ev(ptr noundef nonnull align 8 dereferenceable(96) %10) #36
  call void @llvm.lifetime.end.p0(i64 96, ptr nonnull %10) #36
  call void @llvm.lifetime.end.p0(i64 24, ptr nonnull %9) #36
  call void @_ZN2cv3MatD1Ev(ptr noundef nonnull align 8 dereferenceable(96) %8) #36
  call void @llvm.lifetime.end.p0(i64 96, ptr nonnull %8) #36
  %32 = add nsw i32 %.01421, %2
  %33 = load i32, ptr %11, align 8, !tbaa !87
  %34 = icmp slt i32 %32, %33
  %35 = icmp slt i32 %29, %13
  %36 = select i1 %34, i1 %35, i1 false
  br i1 %36, label %26, label %._crit_edge, !llvm.loop !105

37:                                               ; preds = %26
  %38 = landingpad { ptr, i32 }
          cleanup
  br label %44

39:                                               ; preds = %28
  %40 = landingpad { ptr, i32 }
          cleanup
  br label %43

41:                                               ; preds = %30
  %42 = landingpad { ptr, i32 }
          cleanup
  call void @_ZN2cv3MatD1Ev(ptr noundef nonnull align 8 dereferenceable(96) %10) #36
  br label %43

43:                                               ; preds = %41, %39
  %.pn.pn = phi { ptr, i32 } [ %42, %41 ], [ %40, %39 ]
  call void @llvm.lifetime.end.p0(i64 96, ptr nonnull %10) #36
  call void @llvm.lifetime.end.p0(i64 24, ptr nonnull %9) #36
  call void @_ZN2cv3MatD1Ev(ptr noundef nonnull align 8 dereferenceable(96) %8) #36
  br label %44

44:                                               ; preds = %43, %37
  %.pn.pn.pn = phi { ptr, i32 } [ %.pn.pn, %43 ], [ %38, %37 ]
  call void @llvm.lifetime.end.p0(i64 96, ptr nonnull %8) #36
  call void @_ZN2cv3MatD1Ev(ptr noundef nonnull align 8 dereferenceable(96) %0) #36
  resume { ptr, i32 } %.pn.pn.pn

._crit_edge:                                      ; preds = %31, %3
  ret void
}